target datalayout = "e-m:e-p270:32:32-p271:32:32-p272:64:64-i64:64-i128:128-f80:128-n8:16:32:64-S128"
target triple = "x86_64-pc-linux-gnu"

%struct.AVRational = type { i32, i32 }
%struct.AVChannelLayout = type { i32, i32, %union.anon, ptr }
%union.anon = type { i64 }
%struct.AVCodecContext = type { ptr, i32, i32, ptr, i32, i32, ptr, ptr, ptr, i64, i32, i32, ptr, i32, %struct.AVRational, %struct.AVRational, %struct.AVRational, i32, i32, i32, i32, i32, %struct.AVRational, i32, i32, i32, i32, i32, i32, i32, i32, i32, i32, i32, ptr, ptr, i32, float, float, float, float, float, float, float, float, float, i32, i32, i32, i32, i32, i32, i32, i32, i32, i32, i32, i32, ptr, ptr, ptr, i32, i32, i32, i32, i32, i32, i32, i32, i32, i32, %struct.AVChannelLayout, i32, i32, i32, i32, i32, i32, i32, i32, ptr, i32, i32, i32, float, float, i32, i32, i32, i32, i32, ptr, i64, i64, float, float, i32, i32, ptr, ptr, i32, i32, i32, i32, i32, ptr, ptr, ptr, ptr, i32, i32, [8 x i64], i32, i32, i32, i32, i32, i32, i32, ptr, ptr, i32, i32, i32, i32, i32, i32, i32, i32, i32, i32, ptr, ptr, i32, i32, ptr, ptr, ptr, ptr, i32, i32, i64, i32, i32, i64, ptr, i64, ptr, i32, ptr, i32 }

; Function Attrs: nounwind uwtable
define internal i64 @get_bit_rate(ptr noundef %0) #0 {
  %2 = alloca ptr, align 8
  %3 = alloca i64, align 8
  %4 = alloca i32, align 4
  store ptr %0, ptr %2, align 8, !tbaa !4
  call void @llvm.lifetime.start.p0(i64 8, ptr %3) #13
  call void @llvm.lifetime.start.p0(i64 4, ptr %4) #13
  %5 = load ptr, ptr %2, align 8, !tbaa !4
  %6 = getelementptr inbounds nuw %struct.AVCodecContext, ptr %5, i32 0, i32 2
  %7 = load i32, ptr %6, align 4, !tbaa !46
  switch i32 %7, label %47 [
    i32 0, label %8
    i32 2, label %8
    i32 3, label %8
    i32 4, label %8
    i32 1, label %12
  ]

8:                                                ; preds = %1, %1, %1, %1
  %9 = load ptr, ptr %2, align 8, !tbaa !4
  %10 = getelementptr inbounds nuw %struct.AVCodecContext, ptr %9, i32 0, i32 9
  %11 = load i64, ptr %10, align 8, !tbaa !100
  store i64 %11, ptr %3, align 8, !tbaa !14
  br label %48

12:                                               ; preds = %1
  %13 = load ptr, ptr %2, align 8, !tbaa !4
  %14 = getelementptr inbounds nuw %struct.AVCodecContext, ptr %13, i32 0, i32 4
  %15 = load i32, ptr %14, align 8, !tbaa !48
  %16 = call i32 @av_get_bits_per_sample(i32 noundef %15)
  store i32 %16, ptr %4, align 4, !tbaa !12
  %17 = load i32, ptr %4, align 4, !tbaa !12
  %18 = icmp ne i32 %17, 0
  br i1 %18, label %19, label %42

19:                                               ; preds = %12
  %20 = load ptr, ptr %2, align 8, !tbaa !4
  %21 = getelementptr inbounds nuw %struct.AVCodecContext, ptr %20, i32 0, i32 69
  %22 = load i32, ptr %21, align 8, !tbaa !86
  %23 = sext i32 %22 to i64
  %24 = load ptr, ptr %2, align 8, !tbaa !4
  %25 = getelementptr inbounds nuw %struct.AVCodecContext, ptr %24, i32 0, i32 71
  %26 = getelementptr inbounds nuw %struct.AVChannelLayout, ptr %25, i32 0, i32 1
  %27 = load i32, ptr %26, align 4, !tbaa !88
  %28 = sext i32 %27 to i64
  %29 = mul nsw i64 %23, %28
  store i64 %29, ptr %3, align 8, !tbaa !14
  %30 = load i64, ptr %3, align 8, !tbaa !14
  %31 = load i32, ptr %4, align 4, !tbaa !12
  %32 = sext i32 %31 to i64
  %33 = sdiv i64 9223372036854775807, %32
  %34 = icmp sgt i64 %30, %33
  br i1 %34, label %35, label %36

35:                                               ; preds = %19
  store i64 0, ptr %3, align 8, !tbaa !14
  br label %41

36:                                               ; preds = %19
  %37 = load i32, ptr %4, align 4, !tbaa !12
  %38 = sext i32 %37 to i64
  %39 = load i64, ptr %3, align 8, !tbaa !14
  %40 = mul nsw i64 %39, %38
  store i64 %40, ptr %3, align 8, !tbaa !14
  br label %41

41:                                               ; preds = %36, %35
  br label %46

42:                                               ; preds = %12
  %43 = load ptr, ptr %2, align 8, !tbaa !4
  %44 = getelementptr inbounds nuw %struct.AVCodecContext, ptr %43, i32 0, i32 9
  %45 = load i64, ptr %44, align 8, !tbaa !100
  store i64 %45, ptr %3, align 8, !tbaa !14
  br label %46

46:                                               ; preds = %42, %41
  br label %48

47:                                               ; preds = %1
  store i64 0, ptr %3, align 8, !tbaa !14
  br label %48

48:                                               ; preds = %47, %46, %8
  %49 = load i64, ptr %3, align 8, !tbaa !14
  call void @llvm.lifetime.end.p0(i64 4, ptr %4) #13
  call void @llvm.lifetime.end.p0(i64 8, ptr %3) #13
  ret i64 %49
}