; Function Attrs: nounwind uwtable
define internal fastcc i64 @get_bit_rate(ptr noundef readonly captures(none) %0) unnamed_addr #0 {
  %2 = getelementptr inbounds nuw i8, ptr %0, i64 12
  %3 = load i32, ptr %2, align 4, !tbaa !37
  switch i32 %3, label %26 [
    i32 0, label %4
    i32 2, label %4
    i32 3, label %4
    i32 4, label %4
    i32 1, label %7
  ]

4:                                                ; preds = %1, %1, %1, %1
  %5 = getelementptr inbounds nuw i8, ptr %0, i64 56
  %6 = load i64, ptr %5, align 8, !tbaa !83
  br label %26

7:                                                ; preds = %1
  %8 = getelementptr inbounds nuw i8, ptr %0, i64 24
  %9 = load i32, ptr %8, align 8, !tbaa !39
  %10 = tail call i32 @av_get_bits_per_sample(i32 noundef %9) #12
  %.not = icmp eq i32 %10, 0
  br i1 %.not, label %23, label %11

11:                                               ; preds = %7
  %12 = getelementptr inbounds nuw i8, ptr %0, i64 344
  %13 = load i32, ptr %12, align 8, !tbaa !70
  %14 = sext i32 %13 to i64
  %15 = getelementptr inbounds nuw i8, ptr %0, i64 356
  %16 = load i32, ptr %15, align 4, !tbaa !72
  %17 = sext i32 %16 to i64
  %18 = mul nsw i64 %17, %14
  %19 = sext i32 %10 to i64
  %20 = sdiv i64 9223372036854775807, %19
  %21 = icmp sgt i64 %18, %20
  %22 = mul nsw i64 %18, %19
  %spec.select = select i1 %21, i64 0, i64 %22
  br label %26

23:                                               ; preds = %7
  %24 = getelementptr inbounds nuw i8, ptr %0, i64 56
  %25 = load i64, ptr %24, align 8, !tbaa !83
  br label %26

26:                                               ; preds = %11, %1, %23, %4
  %.0 = phi i64 [ %25, %23 ], [ %6, %4 ], [ 0, %1 ], [ %spec.select, %11 ]
  ret i64 %.0
}